ccopy_reg
_reconstructor
p1
(csklearn.discriminant_analysis
QuadraticDiscriminantAnalysis
p2
c__builtin__
object
p3
NtRp4
(dp5
S'store_covariances'
p6
I00
sS'priors'
p7
cnumpy.core.multiarray
_reconstruct
p8
(cnumpy
ndarray
p9
(I0
tS'b'
tRp10
(I1
(I2
tcnumpy
dtype
p11
(S'f8'
I0
I1
tRp12
(I3
S'<'
NNNI-1
I-1
I0
tbI00
S'\xcd\xcc\xcc\xcc\xcc\xcc\xec?\x9a\x99\x99\x99\x99\x99\xb9?'
tbsS'classes_'
p13
g8
(g9
(I0
tS'b'
tRp14
(I1
(I2
tg11
(S'i8'
I0
I1
tRp15
(I3
S'<'
NNNI-1
I-1
I0
tbI00
S'\x00\x00\x00\x00\x00\x00\x00\x00\x01\x00\x00\x00\x00\x00\x00\x00'
tbsS'scalings_'
p16
(lp17
g8
(g9
(I0
tS'b'
tRp18
(I1
(I1
tg12
I00
S'?\xdb\xd6z&q\x84?'
tbag8
(g9
(I0
tS'b'
tRp19
(I1
(I1
tg12
I00
S'\xc1;\x0e\\\xee\xa6\xc9?'
tbasS'priors_'
p20
g10
sS'tol'
p21
F0.0001
sS'_sklearn_version'
p22
S'0.18.1'
p23
sS'rotations_'
p24
(lp25
g8
(g9
(I0
tS'b'
tRp26
(I1
(I1
I1
tg12
I00
S'\x00\x00\x00\x00\x00\x00\xf0?'
tbag8
(g9
(I0
tS'b'
tRp27
(I1
(I1
I1
tg12
I00
S'\x00\x00\x00\x00\x00\x00\xf0?'
tbasS'reg_param'
p28
F0
sS'means_'
p29
g8
(g9
(I0
tS'b'
tRp30
(I1
(I2
I1
tg12
I00
S'x\xbb\xfbi\xa0\x93i\xbf\x86\x98\xe9"6\xf6\xb0?'
tbsb.